; ModuleID = '24/619.c'
source_filename = "24/619.c"
target datalayout = "e-m:e-p270:32:32-p271:32:32-p272:64:64-i64:64-f80:128-n8:16:32:64-S128"
target triple = "x86_64-pc-linux-gnu"

@.str = private unnamed_addr constant [4 x i8] c"%s\0A\00", align 1

; Function Attrs: noinline nounwind uwtable
define dso_local i32 @main(i32 %0, i8** %1) #0 {
  %3 = alloca i32, align 4
  %4 = alloca i32, align 4
  %5 = alloca i8**, align 8
  %6 = alloca [1000 x i8], align 16
  %7 = alloca [50 x [20 x i8]], align 16
  %8 = alloca i32, align 4
  %9 = alloca i32, align 4
  %10 = alloca i32, align 4
  %11 = alloca i32, align 4
  %12 = alloca i32, align 4
  %13 = alloca i32, align 4
  %14 = alloca i32, align 4
  %15 = alloca i32, align 4
  store i32 0, i32* %3, align 4
  store i32 %0, i32* %4, align 4
  store i8** %1, i8*** %5, align 8
  %16 = bitcast [50 x [20 x i8]]* %7 to i8*
  call void @llvm.memset.p0i8.i64(i8* align 16 %16, i8 0, i64 1000, i1 false)
  store i32 0, i32* %9, align 4
  store i32 0, i32* %10, align 4
  %17 = getelementptr inbounds [1000 x i8], [1000 x i8]* %6, i64 0, i64 0
  %18 = call i32 (i8*, ...) bitcast (i32 (...)* @gets to i32 (i8*, ...)*)(i8* %17)
  %19 = getelementptr inbounds [1000 x i8], [1000 x i8]* %6, i64 0, i64 0
  %20 = call i64 @strlen(i8* %19) #4
  %21 = trunc i64 %20 to i32
  store i32 %21, i32* %11, align 4
  store i32 0, i32* %8, align 4
  br label %22

22:                                               ; preds = %58, %2
  %23 = load i32, i32* %8, align 4
  %24 = load i32, i32* %11, align 4
  %25 = icmp slt i32 %23, %24
  br i1 %25, label %26, label %61

26:                                               ; preds = %22
  %27 = load i32, i32* %8, align 4
  %28 = sext i32 %27 to i64
  %29 = getelementptr inbounds [1000 x i8], [1000 x i8]* %6, i64 0, i64 %28
  %30 = load i8, i8* %29, align 1
  %31 = sext i8 %30 to i32
  %32 = icmp ne i32 %31, 32
  br i1 %32, label %33, label %46

33:                                               ; preds = %26
  %34 = load i32, i32* %8, align 4
  %35 = sext i32 %34 to i64
  %36 = getelementptr inbounds [1000 x i8], [1000 x i8]* %6, i64 0, i64 %35
  %37 = load i8, i8* %36, align 1
  %38 = load i32, i32* %9, align 4
  %39 = sext i32 %38 to i64
  %40 = getelementptr inbounds [50 x [20 x i8]], [50 x [20 x i8]]* %7, i64 0, i64 %39
  %41 = load i32, i32* %10, align 4
  %42 = sext i32 %41 to i64
  %43 = getelementptr inbounds [20 x i8], [20 x i8]* %40, i64 0, i64 %42
  store i8 %37, i8* %43, align 1
  %44 = load i32, i32* %10, align 4
  %45 = add nsw i32 %44, 1
  store i32 %45, i32* %10, align 4
  br label %57

46:                                               ; preds = %26
  %47 = load i32, i32* %8, align 4
  %48 = sext i32 %47 to i64
  %49 = getelementptr inbounds [1000 x i8], [1000 x i8]* %6, i64 0, i64 %48
  %50 = load i8, i8* %49, align 1
  %51 = sext i8 %50 to i32
  %52 = icmp eq i32 %51, 32
  br i1 %52, label %53, label %56

53:                                               ; preds = %46
  %54 = load i32, i32* %9, align 4
  %55 = add nsw i32 %54, 1
  store i32 %55, i32* %9, align 4
  store i32 0, i32* %10, align 4
  br label %56

56:                                               ; preds = %53, %46
  br label %57

57:                                               ; preds = %56, %33
  br label %58

58:                                               ; preds = %57
  %59 = load i32, i32* %8, align 4
  %60 = add nsw i32 %59, 1
  store i32 %60, i32* %8, align 4
  br label %22

61:                                               ; preds = %22
  %62 = getelementptr inbounds [50 x [20 x i8]], [50 x [20 x i8]]* %7, i64 0, i64 0
  %63 = getelementptr inbounds [20 x i8], [20 x i8]* %62, i64 0, i64 0
  %64 = call i64 @strlen(i8* %63) #4
  %65 = trunc i64 %64 to i32
  store i32 %65, i32* %12, align 4
  %66 = getelementptr inbounds [50 x [20 x i8]], [50 x [20 x i8]]* %7, i64 0, i64 0
  %67 = getelementptr inbounds [20 x i8], [20 x i8]* %66, i64 0, i64 0
  %68 = call i64 @strlen(i8* %67) #4
  %69 = trunc i64 %68 to i32
  store i32 %69, i32* %13, align 4
  store i32 0, i32* %14, align 4
  store i32 0, i32* %15, align 4
  store i32 1, i32* %8, align 4
  br label %70

70:                                               ; preds = %109, %61
  %71 = load i32, i32* %8, align 4
  %72 = load i32, i32* %9, align 4
  %73 = icmp sle i32 %71, %72
  br i1 %73, label %74, label %112

74:                                               ; preds = %70
  %75 = load i32, i32* %12, align 4
  %76 = sext i32 %75 to i64
  %77 = load i32, i32* %8, align 4
  %78 = sext i32 %77 to i64
  %79 = getelementptr inbounds [50 x [20 x i8]], [50 x [20 x i8]]* %7, i64 0, i64 %78
  %80 = getelementptr inbounds [20 x i8], [20 x i8]* %79, i64 0, i64 0
  %81 = call i64 @strlen(i8* %80) #4
  %82 = icmp ugt i64 %76, %81
  br i1 %82, label %83, label %91

83:                                               ; preds = %74
  %84 = load i32, i32* %8, align 4
  %85 = sext i32 %84 to i64
  %86 = getelementptr inbounds [50 x [20 x i8]], [50 x [20 x i8]]* %7, i64 0, i64 %85
  %87 = getelementptr inbounds [20 x i8], [20 x i8]* %86, i64 0, i64 0
  %88 = call i64 @strlen(i8* %87) #4
  %89 = trunc i64 %88 to i32
  store i32 %89, i32* %12, align 4
  %90 = load i32, i32* %8, align 4
  store i32 %90, i32* %14, align 4
  br label %91

91:                                               ; preds = %83, %74
  %92 = load i32, i32* %13, align 4
  %93 = sext i32 %92 to i64
  %94 = load i32, i32* %8, align 4
  %95 = sext i32 %94 to i64
  %96 = getelementptr inbounds [50 x [20 x i8]], [50 x [20 x i8]]* %7, i64 0, i64 %95
  %97 = getelementptr inbounds [20 x i8], [20 x i8]* %96, i64 0, i64 0
  %98 = call i64 @strlen(i8* %97) #4
  %99 = icmp ult i64 %93, %98
  br i1 %99, label %100, label %108

100:                                              ; preds = %91
  %101 = load i32, i32* %8, align 4
  %102 = sext i32 %101 to i64
  %103 = getelementptr inbounds [50 x [20 x i8]], [50 x [20 x i8]]* %7, i64 0, i64 %102
  %104 = getelementptr inbounds [20 x i8], [20 x i8]* %103, i64 0, i64 0
  %105 = call i64 @strlen(i8* %104) #4
  %106 = trunc i64 %105 to i32
  store i32 %106, i32* %13, align 4
  %107 = load i32, i32* %8, align 4
  store i32 %107, i32* %15, align 4
  br label %108

108:                                              ; preds = %100, %91
  br label %109

109:                                              ; preds = %108
  %110 = load i32, i32* %8, align 4
  %111 = add nsw i32 %110, 1
  store i32 %111, i32* %8, align 4
  br label %70

112:                                              ; preds = %70
  %113 = load i32, i32* %15, align 4
  %114 = sext i32 %113 to i64
  %115 = getelementptr inbounds [50 x [20 x i8]], [50 x [20 x i8]]* %7, i64 0, i64 %114
  %116 = getelementptr inbounds [20 x i8], [20 x i8]* %115, i64 0, i64 0
  %117 = call i32 (i8*, ...) @printf(i8* getelementptr inbounds ([4 x i8], [4 x i8]* @.str, i64 0, i64 0), i8* %116)
  %118 = load i32, i32* %14, align 4
  %119 = sext i32 %118 to i64
  %120 = getelementptr inbounds [50 x [20 x i8]], [50 x [20 x i8]]* %7, i64 0, i64 %119
  %121 = getelementptr inbounds [20 x i8], [20 x i8]* %120, i64 0, i64 0
  %122 = call i32 (i8*, ...) @printf(i8* getelementptr inbounds ([4 x i8], [4 x i8]* @.str, i64 0, i64 0), i8* %121)
  ret i32 0
}

; Function Attrs: argmemonly nounwind willreturn
declare void @llvm.memset.p0i8.i64(i8* nocapture writeonly, i8, i64, i1 immarg) #1

declare dso_local i32 @gets(...) #2

; Function Attrs: nounwind readonly
declare dso_local i64 @strlen(i8*) #3

declare dso_local i32 @printf(i8*, ...) #2


!llvm.module.flags = !{!0}
!llvm.ident = !{!1}

!0 = !{i32 1, !"wchar_size", i32 4}
!1 = !{!"clang version 10.0.0-4ubuntu1 "}
